target datalayout = "e-m:e-p270:32:32-p271:32:32-p272:64:64-i64:64-i128:128-f80:128-n8:16:32:64-S128"
target triple = "x86_64-pc-linux-gnu"

%class.ptr_vector = type { %class.vector }
%class.vector = type { ptr }
%"struct.smt::theory_array::var_data" = type <{ %class.ptr_vector, %class.ptr_vector, %class.ptr_vector, i8, i8, i8, [5 x i8] }>

; Function Attrs: mustprogress nounwind uwtable
define linkonce_odr hidden noundef i32 @_ZNK6vectorIPN3smt5enodeELb0EjE4sizeEv(ptr noundef nonnull align 8 dereferenceable(8) %0) #4 comdat align 2 {
  %2 = alloca i32, align 4
  %3 = alloca ptr, align 8
  store ptr %0, ptr %3, align 8, !tbaa !585
  %4 = load ptr, ptr %3, align 8
  %5 = getelementptr inbounds nuw %class.vector, ptr %4, i32 0, i32 0
  %6 = load ptr, ptr %5, align 8, !tbaa !587
  %7 = icmp eq ptr %6, null
  br i1 %7, label %8, label %9

8:                                                ; preds = %1
  store i32 0, ptr %2, align 4
  br label %14

9:                                                ; preds = %1
  %10 = getelementptr inbounds nuw %class.vector, ptr %4, i32 0, i32 0
  %11 = load ptr, ptr %10, align 8, !tbaa !587
  %12 = getelementptr inbounds i32, ptr %11, i64 -1
  %13 = load i32, ptr %12, align 4, !tbaa !8
  store i32 %13, ptr %2, align 4
  br label %14

14:                                               ; preds = %9, %8
  %15 = load i32, ptr %2, align 4
  ret i32 %15
}

; Function Attrs: mustprogress uwtable
define hidden noundef i32 @_ZN3smt12theory_array21get_lambda_equiv_sizeEiPNS0_8var_dataE(ptr noundef nonnull align 8 dereferenceable(444) %0, i32 noundef %1, ptr noundef %2) unnamed_addr #6 align 2 {
  %4 = alloca ptr, align 8
  %5 = alloca i32, align 4
  %6 = alloca ptr, align 8
  store ptr %0, ptr %4, align 8, !tbaa !28
  store i32 %1, ptr %5, align 4, !tbaa !8
  store ptr %2, ptr %6, align 8, !tbaa !574
  %7 = load ptr, ptr %6, align 8, !tbaa !574
  %8 = getelementptr inbounds nuw %"struct.smt::theory_array::var_data", ptr %7, i32 0, i32 0
  %9 = call noundef i32 @_ZNK6vectorIPN3smt5enodeELb0EjE4sizeEv(ptr noundef nonnull align 8 dereferenceable(8) %8)
  ret i32 %9
}