; Function Attrs: mustprogress nofree norecurse nosync nounwind willreturn memory(read, inaccessiblemem: none) uwtable
define hidden noundef i32 @_ZN3smt12theory_array21get_lambda_equiv_sizeEiPNS0_8var_dataE(ptr nonnull readnone align 8 captures(none) %0, i32 %1, ptr noundef readonly captures(none) %2) unnamed_addr #13 align 2 {
  %4 = load ptr, ptr %2, align 8, !tbaa !550
  %5 = icmp eq ptr %4, null
  br i1 %5, label %_ZNK6vectorIPN3smt5enodeELb0EjE4sizeEv.exit, label %6

6:                                                ; preds = %3
  %7 = getelementptr inbounds i8, ptr %4, i64 -4
  %8 = load i32, ptr %7, align 4, !tbaa !560
  br label %_ZNK6vectorIPN3smt5enodeELb0EjE4sizeEv.exit

_ZNK6vectorIPN3smt5enodeELb0EjE4sizeEv.exit:      ; preds = %3, %6
  %.0.i = phi i32 [ %8, %6 ], [ 0, %3 ]
  ret i32 %.0.i
}